target datalayout = "e-m:e-p270:32:32-p271:32:32-p272:64:64-i64:64-i128:128-f80:128-n8:16:32:64-S128"
target triple = "x86_64-pc-linux-gnu"

%struct._7z_coder = type { i64, i64, i64, i64, ptr }
%struct._7z_stream_info = type { %struct._7z_pack_info, %struct._7z_coders_info, %struct._7z_substream_info }
%struct._7z_pack_info = type { i64, i64, ptr, %struct._7z_digests, ptr }
%struct._7z_digests = type { ptr, ptr }
%struct._7z_coders_info = type { i64, ptr, i64 }
%struct._7z_substream_info = type { i64, ptr, ptr, ptr }
%struct._7z_folder = type { i64, ptr, i64, ptr, i64, ptr, i64, i64, ptr, i8, i32, i64, i32, i64 }

; Function Attrs: nounwind uwtable
define internal void @free_Folder(ptr noundef %0) #0 {
  %2 = alloca ptr, align 8
  %3 = alloca i32, align 4
  store ptr %0, ptr %2, align 8, !tbaa !66
  call void @llvm.lifetime.start.p0(i64 4, ptr %3) #12
  %4 = load ptr, ptr %2, align 8, !tbaa !66
  %5 = getelementptr inbounds nuw %struct._7z_folder, ptr %4, i32 0, i32 1
  %6 = load ptr, ptr %5, align 8, !tbaa !85
  %7 = icmp ne ptr %6, null
  br i1 %7, label %8, label %32

8:                                                ; preds = %1
  store i32 0, ptr %3, align 4, !tbaa !11
  br label %9

9:                                                ; preds = %25, %8
  %10 = load i32, ptr %3, align 4, !tbaa !11
  %11 = zext i32 %10 to i64
  %12 = load ptr, ptr %2, align 8, !tbaa !66
  %13 = getelementptr inbounds nuw %struct._7z_folder, ptr %12, i32 0, i32 0
  %14 = load i64, ptr %13, align 8, !tbaa !82
  %15 = icmp ult i64 %11, %14
  br i1 %15, label %16, label %28

16:                                               ; preds = %9
  %17 = load ptr, ptr %2, align 8, !tbaa !66
  %18 = getelementptr inbounds nuw %struct._7z_folder, ptr %17, i32 0, i32 1
  %19 = load ptr, ptr %18, align 8, !tbaa !85
  %20 = load i32, ptr %3, align 4, !tbaa !11
  %21 = zext i32 %20 to i64
  %22 = getelementptr inbounds nuw %struct._7z_coder, ptr %19, i64 %21
  %23 = getelementptr inbounds nuw %struct._7z_coder, ptr %22, i32 0, i32 4
  %24 = load ptr, ptr %23, align 8, !tbaa !286
  call void @free(ptr noundef %24) #12
  br label %25

25:                                               ; preds = %16
  %26 = load i32, ptr %3, align 4, !tbaa !11
  %27 = add i32 %26, 1
  store i32 %27, ptr %3, align 4, !tbaa !11
  br label %9, !llvm.loop !320

28:                                               ; preds = %9
  %29 = load ptr, ptr %2, align 8, !tbaa !66
  %30 = getelementptr inbounds nuw %struct._7z_folder, ptr %29, i32 0, i32 1
  %31 = load ptr, ptr %30, align 8, !tbaa !85
  call void @free(ptr noundef %31) #12
  br label %32

32:                                               ; preds = %28, %1
  %33 = load ptr, ptr %2, align 8, !tbaa !66
  %34 = getelementptr inbounds nuw %struct._7z_folder, ptr %33, i32 0, i32 3
  %35 = load ptr, ptr %34, align 8, !tbaa !148
  call void @free(ptr noundef %35) #12
  %36 = load ptr, ptr %2, align 8, !tbaa !66
  %37 = getelementptr inbounds nuw %struct._7z_folder, ptr %36, i32 0, i32 5
  %38 = load ptr, ptr %37, align 8, !tbaa !291
  call void @free(ptr noundef %38) #12
  %39 = load ptr, ptr %2, align 8, !tbaa !66
  %40 = getelementptr inbounds nuw %struct._7z_folder, ptr %39, i32 0, i32 8
  %41 = load ptr, ptr %40, align 8, !tbaa !151
  call void @free(ptr noundef %41) #12
  call void @llvm.lifetime.end.p0(i64 4, ptr %3) #12
  ret void
}

; Function Attrs: nounwind uwtable
define internal void @free_Digest(ptr noundef %0) #0 {
  %2 = alloca ptr, align 8
  store ptr %0, ptr %2, align 8, !tbaa !279
  %3 = load ptr, ptr %2, align 8, !tbaa !279
  %4 = getelementptr inbounds nuw %struct._7z_digests, ptr %3, i32 0, i32 0
  %5 = load ptr, ptr %4, align 8, !tbaa !260
  call void @free(ptr noundef %5) #12
  %6 = load ptr, ptr %2, align 8, !tbaa !279
  %7 = getelementptr inbounds nuw %struct._7z_digests, ptr %6, i32 0, i32 1
  %8 = load ptr, ptr %7, align 8, !tbaa !261
  call void @free(ptr noundef %8) #12
  ret void
}

; Function Attrs: nounwind uwtable
define internal void @free_SubStreamsInfo(ptr noundef %0) #0 {
  %2 = alloca ptr, align 8
  store ptr %0, ptr %2, align 8, !tbaa !263
  %3 = load ptr, ptr %2, align 8, !tbaa !263
  %4 = getelementptr inbounds nuw %struct._7z_substream_info, ptr %3, i32 0, i32 1
  %5 = load ptr, ptr %4, align 8, !tbaa !268
  call void @free(ptr noundef %5) #12
  %6 = load ptr, ptr %2, align 8, !tbaa !263
  %7 = getelementptr inbounds nuw %struct._7z_substream_info, ptr %6, i32 0, i32 2
  %8 = load ptr, ptr %7, align 8, !tbaa !269
  call void @free(ptr noundef %8) #12
  %9 = load ptr, ptr %2, align 8, !tbaa !263
  %10 = getelementptr inbounds nuw %struct._7z_substream_info, ptr %9, i32 0, i32 3
  %11 = load ptr, ptr %10, align 8, !tbaa !270
  call void @free(ptr noundef %11) #12
  ret void
}

; Function Attrs: nounwind uwtable
define internal void @free_CodersInfo(ptr noundef %0) #0 {
  %2 = alloca ptr, align 8
  %3 = alloca i32, align 4
  store ptr %0, ptr %2, align 8, !tbaa !252
  call void @llvm.lifetime.start.p0(i64 4, ptr %3) #12
  %4 = load ptr, ptr %2, align 8, !tbaa !252
  %5 = getelementptr inbounds nuw %struct._7z_coders_info, ptr %4, i32 0, i32 1
  %6 = load ptr, ptr %5, align 8, !tbaa !255
  %7 = icmp ne ptr %6, null
  br i1 %7, label %8, label %30

8:                                                ; preds = %1
  store i32 0, ptr %3, align 4, !tbaa !11
  br label %9

9:                                                ; preds = %23, %8
  %10 = load i32, ptr %3, align 4, !tbaa !11
  %11 = zext i32 %10 to i64
  %12 = load ptr, ptr %2, align 8, !tbaa !252
  %13 = getelementptr inbounds nuw %struct._7z_coders_info, ptr %12, i32 0, i32 0
  %14 = load i64, ptr %13, align 8, !tbaa !254
  %15 = icmp ult i64 %11, %14
  br i1 %15, label %16, label %26

16:                                               ; preds = %9
  %17 = load ptr, ptr %2, align 8, !tbaa !252
  %18 = getelementptr inbounds nuw %struct._7z_coders_info, ptr %17, i32 0, i32 1
  %19 = load ptr, ptr %18, align 8, !tbaa !255
  %20 = load i32, ptr %3, align 4, !tbaa !11
  %21 = zext i32 %20 to i64
  %22 = getelementptr inbounds nuw %struct._7z_folder, ptr %19, i64 %21
  call void @free_Folder(ptr noundef %22)
  br label %23

23:                                               ; preds = %16
  %24 = load i32, ptr %3, align 4, !tbaa !11
  %25 = add i32 %24, 1
  store i32 %25, ptr %3, align 4, !tbaa !11
  br label %9, !llvm.loop !319

26:                                               ; preds = %9
  %27 = load ptr, ptr %2, align 8, !tbaa !252
  %28 = getelementptr inbounds nuw %struct._7z_coders_info, ptr %27, i32 0, i32 1
  %29 = load ptr, ptr %28, align 8, !tbaa !255
  call void @free(ptr noundef %29) #12
  br label %30

30:                                               ; preds = %26, %1
  call void @llvm.lifetime.end.p0(i64 4, ptr %3) #12
  ret void
}

; Function Attrs: nounwind uwtable
define internal void @free_PackInfo(ptr noundef %0) #0 {
  %2 = alloca ptr, align 8
  store ptr %0, ptr %2, align 8, !tbaa !244
  %3 = load ptr, ptr %2, align 8, !tbaa !244
  %4 = getelementptr inbounds nuw %struct._7z_pack_info, ptr %3, i32 0, i32 2
  %5 = load ptr, ptr %4, align 8, !tbaa !247
  call void @free(ptr noundef %5) #12
  %6 = load ptr, ptr %2, align 8, !tbaa !244
  %7 = getelementptr inbounds nuw %struct._7z_pack_info, ptr %6, i32 0, i32 4
  %8 = load ptr, ptr %7, align 8, !tbaa !248
  call void @free(ptr noundef %8) #12
  %9 = load ptr, ptr %2, align 8, !tbaa !244
  %10 = getelementptr inbounds nuw %struct._7z_pack_info, ptr %9, i32 0, i32 3
  call void @free_Digest(ptr noundef %10)
  ret void
}

; Function Attrs: nounwind uwtable
define internal void @free_StreamsInfo(ptr noundef %0) #0 {
  %2 = alloca ptr, align 8
  store ptr %0, ptr %2, align 8, !tbaa !134
  %3 = load ptr, ptr %2, align 8, !tbaa !134
  %4 = getelementptr inbounds nuw %struct._7z_stream_info, ptr %3, i32 0, i32 0
  call void @free_PackInfo(ptr noundef %4)
  %5 = load ptr, ptr %2, align 8, !tbaa !134
  %6 = getelementptr inbounds nuw %struct._7z_stream_info, ptr %5, i32 0, i32 1
  call void @free_CodersInfo(ptr noundef %6)
  %7 = load ptr, ptr %2, align 8, !tbaa !134
  %8 = getelementptr inbounds nuw %struct._7z_stream_info, ptr %7, i32 0, i32 2
  call void @free_SubStreamsInfo(ptr noundef %8)
  ret void
}