; Function Attrs: nounwind uwtable
define internal fastcc void @free_StreamsInfo(ptr noundef readonly captures(none) %0) unnamed_addr #0 {
  %2 = getelementptr inbounds nuw i8, ptr %0, i64 16
  %3 = load ptr, ptr %2, align 8, !tbaa !160
  tail call void @free(ptr noundef %3) #17
  %4 = getelementptr inbounds nuw i8, ptr %0, i64 40
  %5 = load ptr, ptr %4, align 8, !tbaa !161
  tail call void @free(ptr noundef %5) #17
  %6 = getelementptr inbounds nuw i8, ptr %0, i64 24
  %7 = load ptr, ptr %6, align 8, !tbaa !162
  tail call void @free(ptr noundef %7) #17
  %8 = getelementptr inbounds nuw i8, ptr %0, i64 32
  %9 = load ptr, ptr %8, align 8, !tbaa !163
  tail call void @free(ptr noundef %9) #17
  %10 = getelementptr inbounds nuw i8, ptr %0, i64 48
  %11 = getelementptr inbounds nuw i8, ptr %0, i64 56
  %12 = load ptr, ptr %11, align 8, !tbaa !164
  %.not.i = icmp eq ptr %12, null
  br i1 %.not.i, label %free_CodersInfo.exit, label %.preheader.i

.preheader.i:                                     ; preds = %1
  %13 = load i64, ptr %10, align 8, !tbaa !165
  %.not8.i = icmp eq i64 %13, 0
  br i1 %.not8.i, label %._crit_edge.i, label %.lr.ph.i

.lr.ph.i:                                         ; preds = %.preheader.i, %free_Folder.exit.i
  %14 = phi i64 [ %36, %free_Folder.exit.i ], [ 0, %.preheader.i ]
  %.07.i = phi i32 [ %35, %free_Folder.exit.i ], [ 0, %.preheader.i ]
  %15 = load ptr, ptr %11, align 8, !tbaa !164
  %16 = getelementptr inbounds nuw %struct._7z_folder, ptr %15, i64 %14
  %17 = getelementptr inbounds nuw i8, ptr %16, i64 8
  %18 = load ptr, ptr %17, align 8, !tbaa !94
  %.not.i.i = icmp eq ptr %18, null
  br i1 %.not.i.i, label %free_Folder.exit.i, label %.preheader.i.i

.preheader.i.i:                                   ; preds = %.lr.ph.i
  %19 = load i64, ptr %16, align 8, !tbaa !93
  %.not11.i.i = icmp eq i64 %19, 0
  br i1 %.not11.i.i, label %._crit_edge.i.i, label %.lr.ph.i.i

.lr.ph.i.i:                                       ; preds = %.preheader.i.i, %.lr.ph.i.i
  %20 = phi i64 [ %25, %.lr.ph.i.i ], [ 0, %.preheader.i.i ]
  %.010.i.i = phi i32 [ %24, %.lr.ph.i.i ], [ 0, %.preheader.i.i ]
  %21 = load ptr, ptr %17, align 8, !tbaa !94
  %22 = getelementptr inbounds nuw %struct._7z_coder, ptr %21, i64 %20, i32 4
  %23 = load ptr, ptr %22, align 8, !tbaa !166
  tail call void @free(ptr noundef %23) #17
  %24 = add i32 %.010.i.i, 1
  %25 = zext i32 %24 to i64
  %26 = load i64, ptr %16, align 8, !tbaa !93
  %27 = icmp ugt i64 %26, %25
  br i1 %27, label %.lr.ph.i.i, label %._crit_edge.loopexit.i.i, !llvm.loop !167

._crit_edge.loopexit.i.i:                         ; preds = %.lr.ph.i.i
  %.pre.i.i = load ptr, ptr %17, align 8, !tbaa !94
  br label %._crit_edge.i.i

._crit_edge.i.i:                                  ; preds = %._crit_edge.loopexit.i.i, %.preheader.i.i
  %28 = phi ptr [ %.pre.i.i, %._crit_edge.loopexit.i.i ], [ %18, %.preheader.i.i ]
  tail call void @free(ptr noundef %28) #17
  br label %free_Folder.exit.i

free_Folder.exit.i:                               ; preds = %._crit_edge.i.i, %.lr.ph.i
  %29 = getelementptr inbounds nuw i8, ptr %16, i64 24
  %30 = load ptr, ptr %29, align 8, !tbaa !140
  tail call void @free(ptr noundef %30) #17
  %31 = getelementptr inbounds nuw i8, ptr %16, i64 40
  %32 = load ptr, ptr %31, align 8, !tbaa !168
  tail call void @free(ptr noundef %32) #17
  %33 = getelementptr inbounds nuw i8, ptr %16, i64 64
  %34 = load ptr, ptr %33, align 8, !tbaa !144
  tail call void @free(ptr noundef %34) #17
  %35 = add i32 %.07.i, 1
  %36 = zext i32 %35 to i64
  %37 = load i64, ptr %10, align 8, !tbaa !165
  %38 = icmp ugt i64 %37, %36
  br i1 %38, label %.lr.ph.i, label %._crit_edge.loopexit.i, !llvm.loop !169

._crit_edge.loopexit.i:                           ; preds = %free_Folder.exit.i
  %.pre.i = load ptr, ptr %11, align 8, !tbaa !164
  br label %._crit_edge.i

._crit_edge.i:                                    ; preds = %._crit_edge.loopexit.i, %.preheader.i
  %39 = phi ptr [ %.pre.i, %._crit_edge.loopexit.i ], [ %12, %.preheader.i ]
  tail call void @free(ptr noundef %39) #17
  br label %free_CodersInfo.exit

free_CodersInfo.exit:                             ; preds = %1, %._crit_edge.i
  %40 = getelementptr inbounds nuw i8, ptr %0, i64 80
  %41 = load ptr, ptr %40, align 8, !tbaa !170
  tail call void @free(ptr noundef %41) #17
  %42 = getelementptr inbounds nuw i8, ptr %0, i64 88
  %43 = load ptr, ptr %42, align 8, !tbaa !171
  tail call void @free(ptr noundef %43) #17
  %44 = getelementptr inbounds nuw i8, ptr %0, i64 96
  %45 = load ptr, ptr %44, align 8, !tbaa !172
  tail call void @free(ptr noundef %45) #17
  ret void
}